target datalayout = "e-m:e-p270:32:32-p271:32:32-p272:64:64-i64:64-i128:128-f80:128-n8:16:32:64-S128"
target triple = "x86_64-pc-linux-gnu"

%struct.pointf_s = type { double, double }
%struct.GVJ_s = type { ptr, ptr, ptr, ptr, ptr, ptr, i32, ptr, ptr, ptr, ptr, i64, i64, ptr, i32, %struct.gvplugin_active_render_s, %struct.gvplugin_active_device_s, %struct.gvplugin_active_loadimage_t, ptr, %struct.pointf_s, i8, ptr, i32, ptr, i8, ptr, i32, i32, i32, %struct.point, %struct.point, %struct.point, %struct.point, %struct.point, i32, %struct.boxf, %struct.pointf_s, %struct.boxf, %struct.boxf, %struct.pointf_s, %struct.pointf_s, double, i32, %struct.pointf_s, %struct.boxf, %struct.pointf_s, %struct.pointf_s, i32, i32, %struct.box, %struct.box, %struct.pointf_s, %struct.pointf_s, %struct.pointf_s, i8, i8, i8, i8, i8, i8, %struct.pointf_s, %struct.pointf_s, ptr, ptr, ptr, ptr, ptr, ptr, i64, ptr }
%struct.gvplugin_active_render_s = type { ptr, i32, ptr, ptr }
%struct.gvplugin_active_device_s = type { ptr, i32, ptr, ptr }
%struct.gvplugin_active_loadimage_t = type { ptr, i32, ptr }
%struct.point = type { i32, i32 }
%struct.boxf = type { %struct.pointf_s, %struct.pointf_s }
%struct.box = type { %struct.point, %struct.point }
%struct.obj_state_s = type { ptr, i32, %union.anon, i32, %struct.color_s, %struct.color_s, %struct.color_s, i32, double, i32, i32, double, ptr, double, double, double, ptr, ptr, ptr, ptr, ptr, ptr, ptr, ptr, ptr, ptr, ptr, ptr, ptr, ptr, ptr, ptr, ptr, i16, i32, i64, ptr, i64, ptr, ptr, i32, ptr, i32, ptr }
%union.anon = type { ptr }
%struct.color_s = type { %union.anon.0, i32 }
%union.anon.0 = type { [4 x double] }
%struct.agxbuf = type { %union.anon.1 }
%union.anon.1 = type { %struct.anon }
%struct.anon = type { ptr, i64, i64, [7 x i8], i8 }

@layerz = internal global i32 0, align 4
@z = internal global i32 0, align 4
@.str.29 = private unnamed_addr constant [36 x i8] c"    rotate   <%9.3f, %9.3f, %9.3f>\0A\00", align 1
@.str.30 = private unnamed_addr constant [37 x i8] c"    translate<%9.3f, %9.3f, %d.000>\0A\00", align 1
@.str.31 = private unnamed_addr constant [9 x i8] c"    %s}\0A\00", align 1
@.str.46 = private unnamed_addr constant [36 x i8] c"    scale    <%9.3f, %9.3f, %9.3f>\0A\00", align 1
@.str.49 = private unnamed_addr constant [32 x i8] c"sphere_sweep {\0A    %s\0A    %zu,\0A\00", align 1
@.str.51 = private unnamed_addr constant [33 x i8] c"    <%9.3f, %9.3f, %9.3f>, %.3f\0A\00", align 1
@.str.56 = private unnamed_addr constant [14 x i8] c"//*** bezier\0A\00", align 1
@.str.57 = private unnamed_addr constant [9 x i8] c"b_spline\00", align 1
@.str.58 = private unnamed_addr constant [26 x i8] c"%s        tolerance 0.01\0A\00", align 1

; Function Attrs: inlinehint nounwind uwtable
define internal i64 @agxbsizeof(ptr noundef %0) #6 {
  %2 = alloca i64, align 8
  %3 = alloca ptr, align 8
  store ptr %0, ptr %3, align 8, !tbaa !39
  %4 = load ptr, ptr %3, align 8, !tbaa !39
  %5 = call zeroext i1 @agxbuf_is_inline(ptr noundef %4)
  br i1 %5, label %6, label %7

6:                                                ; preds = %1
  store i64 31, ptr %2, align 8
  br label %12

7:                                                ; preds = %1
  %8 = load ptr, ptr %3, align 8, !tbaa !39
  %9 = getelementptr inbounds nuw %struct.agxbuf, ptr %8, i32 0, i32 0
  %10 = getelementptr inbounds nuw %struct.anon, ptr %9, i32 0, i32 2
  %11 = load i64, ptr %10, align 8, !tbaa !31
  store i64 %11, ptr %2, align 8
  br label %12

12:                                               ; preds = %7, %6
  %13 = load i64, ptr %2, align 8
  ret i64 %13
}

; Function Attrs: inlinehint nounwind uwtable
define internal ptr @agxbstart(ptr noundef %0) #6 {
  %2 = alloca ptr, align 8
  store ptr %0, ptr %2, align 8, !tbaa !39
  %3 = load ptr, ptr %2, align 8, !tbaa !39
  %4 = call zeroext i1 @agxbuf_is_inline(ptr noundef %3)
  br i1 %4, label %5, label %9

5:                                                ; preds = %1
  %6 = load ptr, ptr %2, align 8, !tbaa !39
  %7 = getelementptr inbounds nuw %struct.agxbuf, ptr %6, i32 0, i32 0
  %8 = getelementptr inbounds [31 x i8], ptr %7, i64 0, i64 0
  br label %14

9:                                                ; preds = %1
  %10 = load ptr, ptr %2, align 8, !tbaa !39
  %11 = getelementptr inbounds nuw %struct.agxbuf, ptr %10, i32 0, i32 0
  %12 = getelementptr inbounds nuw %struct.anon, ptr %11, i32 0, i32 0
  %13 = load ptr, ptr %12, align 8, !tbaa !31
  br label %14

14:                                               ; preds = %9, %5
  %15 = phi ptr [ %8, %5 ], [ %13, %9 ]
  ret ptr %15
}

; Function Attrs: inlinehint nounwind uwtable
define internal void @agxbclear(ptr noundef %0) #6 {
  %2 = alloca ptr, align 8
  store ptr %0, ptr %2, align 8, !tbaa !39
  %3 = load ptr, ptr %2, align 8, !tbaa !39
  %4 = call zeroext i1 @agxbuf_is_inline(ptr noundef %3)
  br i1 %4, label %5, label %9

5:                                                ; preds = %1
  %6 = load ptr, ptr %2, align 8, !tbaa !39
  %7 = getelementptr inbounds nuw %struct.agxbuf, ptr %6, i32 0, i32 0
  %8 = getelementptr inbounds nuw %struct.anon, ptr %7, i32 0, i32 4
  store i8 0, ptr %8, align 1, !tbaa !31
  br label %13

9:                                                ; preds = %1
  %10 = load ptr, ptr %2, align 8, !tbaa !39
  %11 = getelementptr inbounds nuw %struct.agxbuf, ptr %10, i32 0, i32 0
  %12 = getelementptr inbounds nuw %struct.anon, ptr %11, i32 0, i32 1
  store i64 0, ptr %12, align 8, !tbaa !31
  br label %13

13:                                               ; preds = %9, %5
  ret void
}

; Function Attrs: inlinehint nounwind uwtable
define internal i32 @agxbputc(ptr noundef %0, i8 noundef signext %1) #6 {
  %3 = alloca ptr, align 8
  %4 = alloca i8, align 1
  %5 = alloca i64, align 8
  store ptr %0, ptr %3, align 8, !tbaa !39
  store i8 %1, ptr %4, align 1, !tbaa !31
  %6 = load ptr, ptr %3, align 8, !tbaa !39
  %7 = call i64 @agxblen(ptr noundef %6)
  %8 = load ptr, ptr %3, align 8, !tbaa !39
  %9 = call i64 @agxbsizeof(ptr noundef %8)
  %10 = icmp uge i64 %7, %9
  br i1 %10, label %11, label %13

11:                                               ; preds = %2
  %12 = load ptr, ptr %3, align 8, !tbaa !39
  call void @agxbmore(ptr noundef %12, i64 noundef 1)
  br label %13

13:                                               ; preds = %11, %2
  call void @llvm.lifetime.start.p0(i64 8, ptr %5) #14
  %14 = load ptr, ptr %3, align 8, !tbaa !39
  %15 = call i64 @agxblen(ptr noundef %14)
  store i64 %15, ptr %5, align 8, !tbaa !61
  %16 = load ptr, ptr %3, align 8, !tbaa !39
  %17 = call zeroext i1 @agxbuf_is_inline(ptr noundef %16)
  br i1 %17, label %18, label %29

18:                                               ; preds = %13
  %19 = load i8, ptr %4, align 1, !tbaa !31
  %20 = load ptr, ptr %3, align 8, !tbaa !39
  %21 = getelementptr inbounds nuw %struct.agxbuf, ptr %20, i32 0, i32 0
  %22 = load i64, ptr %5, align 8, !tbaa !61
  %23 = getelementptr inbounds nuw [31 x i8], ptr %21, i64 0, i64 %22
  store i8 %19, ptr %23, align 1, !tbaa !31
  %24 = load ptr, ptr %3, align 8, !tbaa !39
  %25 = getelementptr inbounds nuw %struct.agxbuf, ptr %24, i32 0, i32 0
  %26 = getelementptr inbounds nuw %struct.anon, ptr %25, i32 0, i32 4
  %27 = load i8, ptr %26, align 1, !tbaa !31
  %28 = add i8 %27, 1
  store i8 %28, ptr %26, align 1, !tbaa !31
  br label %42

29:                                               ; preds = %13
  %30 = load i8, ptr %4, align 1, !tbaa !31
  %31 = load ptr, ptr %3, align 8, !tbaa !39
  %32 = getelementptr inbounds nuw %struct.agxbuf, ptr %31, i32 0, i32 0
  %33 = getelementptr inbounds nuw %struct.anon, ptr %32, i32 0, i32 0
  %34 = load ptr, ptr %33, align 8, !tbaa !31
  %35 = load i64, ptr %5, align 8, !tbaa !61
  %36 = getelementptr inbounds nuw i8, ptr %34, i64 %35
  store i8 %30, ptr %36, align 1, !tbaa !31
  %37 = load ptr, ptr %3, align 8, !tbaa !39
  %38 = getelementptr inbounds nuw %struct.agxbuf, ptr %37, i32 0, i32 0
  %39 = getelementptr inbounds nuw %struct.anon, ptr %38, i32 0, i32 1
  %40 = load i64, ptr %39, align 8, !tbaa !31
  %41 = add i64 %40, 1
  store i64 %41, ptr %39, align 8, !tbaa !31
  br label %42

42:                                               ; preds = %29, %18
  call void @llvm.lifetime.end.p0(i64 8, ptr %5) #14
  ret i32 0
}

; Function Attrs: inlinehint nounwind uwtable
define internal i64 @agxblen(ptr noundef %0) #6 {
  %2 = alloca i64, align 8
  %3 = alloca ptr, align 8
  store ptr %0, ptr %3, align 8, !tbaa !39
  %4 = load ptr, ptr %3, align 8, !tbaa !39
  %5 = call zeroext i1 @agxbuf_is_inline(ptr noundef %4)
  br i1 %5, label %6, label %14

6:                                                ; preds = %1
  %7 = load ptr, ptr %3, align 8, !tbaa !39
  %8 = getelementptr inbounds nuw %struct.agxbuf, ptr %7, i32 0, i32 0
  %9 = getelementptr inbounds nuw %struct.anon, ptr %8, i32 0, i32 4
  %10 = load i8, ptr %9, align 1, !tbaa !31
  %11 = zext i8 %10 to i32
  %12 = sub nsw i32 %11, 0
  %13 = sext i32 %12 to i64
  store i64 %13, ptr %2, align 8
  br label %19

14:                                               ; preds = %1
  %15 = load ptr, ptr %3, align 8, !tbaa !39
  %16 = getelementptr inbounds nuw %struct.agxbuf, ptr %15, i32 0, i32 0
  %17 = getelementptr inbounds nuw %struct.anon, ptr %16, i32 0, i32 1
  %18 = load i64, ptr %17, align 8, !tbaa !31
  store i64 %18, ptr %2, align 8
  br label %19

19:                                               ; preds = %14, %6
  %20 = load i64, ptr %2, align 8
  ret i64 %20
}

; Function Attrs: inlinehint nounwind uwtable
define internal zeroext i1 @agxbuf_is_inline(ptr noundef %0) #6 {
  %2 = alloca ptr, align 8
  store ptr %0, ptr %2, align 8, !tbaa !39
  %3 = load ptr, ptr %2, align 8, !tbaa !39
  %4 = getelementptr inbounds nuw %struct.agxbuf, ptr %3, i32 0, i32 0
  %5 = getelementptr inbounds nuw %struct.anon, ptr %4, i32 0, i32 4
  %6 = load i8, ptr %5, align 1, !tbaa !31
  %7 = zext i8 %6 to i32
  %8 = icmp slt i32 %7, 255
  ret i1 %8
}

; Function Attrs: inlinehint nounwind uwtable
define internal void @agxbfree(ptr noundef %0) #6 {
  %2 = alloca ptr, align 8
  store ptr %0, ptr %2, align 8, !tbaa !39
  %3 = load ptr, ptr %2, align 8, !tbaa !39
  %4 = getelementptr inbounds nuw %struct.agxbuf, ptr %3, i32 0, i32 0
  %5 = getelementptr inbounds nuw %struct.anon, ptr %4, i32 0, i32 4
  %6 = load i8, ptr %5, align 1, !tbaa !31
  %7 = zext i8 %6 to i32
  %8 = icmp eq i32 %7, 255
  br i1 %8, label %9, label %14

9:                                                ; preds = %1
  %10 = load ptr, ptr %2, align 8, !tbaa !39
  %11 = getelementptr inbounds nuw %struct.agxbuf, ptr %10, i32 0, i32 0
  %12 = getelementptr inbounds nuw %struct.anon, ptr %11, i32 0, i32 0
  %13 = load ptr, ptr %12, align 8, !tbaa !31
  call void @free(ptr noundef %13) #14
  br label %14

14:                                               ; preds = %9, %1
  ret void
}

; Function Attrs: inlinehint nounwind uwtable
define internal ptr @agxbuse(ptr noundef %0) #6 {
  %2 = alloca ptr, align 8
  store ptr %0, ptr %2, align 8, !tbaa !39
  %3 = load ptr, ptr %2, align 8, !tbaa !39
  %4 = call zeroext i1 @agxbuf_is_inline(ptr noundef %3)
  br i1 %4, label %5, label %9

5:                                                ; preds = %1
  %6 = load ptr, ptr %2, align 8, !tbaa !39
  %7 = call i64 @agxblen(ptr noundef %6)
  %8 = icmp ne i64 %7, 31
  br i1 %8, label %9, label %12

9:                                                ; preds = %5, %1
  %10 = load ptr, ptr %2, align 8, !tbaa !39
  %11 = call i32 @agxbputc(ptr noundef %10, i8 noundef signext 0)
  br label %13

12:                                               ; preds = %5
  br label %13

13:                                               ; preds = %12, %9
  %14 = load ptr, ptr %2, align 8, !tbaa !39
  call void @agxbclear(ptr noundef %14)
  %15 = load ptr, ptr %2, align 8, !tbaa !39
  %16 = call ptr @agxbstart(ptr noundef %15)
  ret ptr %16
}

; Function Attrs: nounwind uwtable
define internal void @pov_bezier(ptr noundef %0, ptr noundef %1, i64 noundef %2, i32 noundef %3) #0 {
  %5 = alloca ptr, align 8
  %6 = alloca ptr, align 8
  %7 = alloca i64, align 8
  %8 = alloca i32, align 4
  %9 = alloca ptr, align 8
  %10 = alloca %struct.agxbuf, align 8
  %11 = alloca i64, align 8
  store ptr %0, ptr %5, align 8, !tbaa !3
  store ptr %1, ptr %6, align 8, !tbaa !54
  store i64 %2, ptr %7, align 8, !tbaa !61
  store i32 %3, ptr %8, align 4, !tbaa !37
  %12 = load ptr, ptr %5, align 8, !tbaa !3
  %13 = call i32 @gvputs(ptr noundef %12, ptr noundef @.str.56)
  %14 = load i32, ptr @layerz, align 4, !tbaa !37
  %15 = sub nsw i32 %14, 4
  store i32 %15, ptr @z, align 4, !tbaa !37
  call void @llvm.lifetime.start.p0(i64 8, ptr %9) #14
  %16 = load ptr, ptr %5, align 8, !tbaa !3
  %17 = load ptr, ptr %5, align 8, !tbaa !3
  %18 = getelementptr inbounds nuw %struct.GVJ_s, ptr %17, i32 0, i32 4
  %19 = load ptr, ptr %18, align 8, !tbaa !8
  %20 = getelementptr inbounds nuw %struct.obj_state_s, ptr %19, i32 0, i32 5
  %21 = call ptr @pov_color_as_str(ptr noundef %16, ptr noundef byval(%struct.color_s) align 8 %20, float noundef 0.000000e+00)
  store ptr %21, ptr %9, align 8, !tbaa !38
  call void @llvm.lifetime.start.p0(i64 32, ptr %10) #14
  call void @llvm.memset.p0.i64(ptr align 8 %10, i8 0, i64 32, i1 false)
  %22 = load i64, ptr %7, align 8, !tbaa !61
  %23 = add i64 %22, 2
  %24 = call i32 (ptr, ptr, ...) @agxbprint(ptr noundef %10, ptr noundef @.str.49, ptr noundef @.str.57, i64 noundef %23)
  call void @llvm.lifetime.start.p0(i64 8, ptr %11) #14
  store i64 0, ptr %11, align 8, !tbaa !61
  br label %25

25:                                               ; preds = %92, %4
  %26 = load i64, ptr %11, align 8, !tbaa !61
  %27 = load i64, ptr %7, align 8, !tbaa !61
  %28 = icmp ult i64 %26, %27
  br i1 %28, label %30, label %29

29:                                               ; preds = %25
  call void @llvm.lifetime.end.p0(i64 8, ptr %11) #14
  br label %95

30:                                               ; preds = %25
  %31 = load ptr, ptr %6, align 8, !tbaa !54
  %32 = load i64, ptr %11, align 8, !tbaa !61
  %33 = getelementptr inbounds nuw %struct.pointf_s, ptr %31, i64 %32
  %34 = getelementptr inbounds nuw %struct.pointf_s, ptr %33, i32 0, i32 0
  %35 = load double, ptr %34, align 8, !tbaa !48
  %36 = load ptr, ptr %5, align 8, !tbaa !3
  %37 = getelementptr inbounds nuw %struct.GVJ_s, ptr %36, i32 0, i32 52
  %38 = getelementptr inbounds nuw %struct.pointf_s, ptr %37, i32 0, i32 0
  %39 = load double, ptr %38, align 8, !tbaa !50
  %40 = fadd double %35, %39
  %41 = load ptr, ptr %6, align 8, !tbaa !54
  %42 = load i64, ptr %11, align 8, !tbaa !61
  %43 = getelementptr inbounds nuw %struct.pointf_s, ptr %41, i64 %42
  %44 = getelementptr inbounds nuw %struct.pointf_s, ptr %43, i32 0, i32 1
  %45 = load double, ptr %44, align 8, !tbaa !51
  %46 = load ptr, ptr %5, align 8, !tbaa !3
  %47 = getelementptr inbounds nuw %struct.GVJ_s, ptr %46, i32 0, i32 52
  %48 = getelementptr inbounds nuw %struct.pointf_s, ptr %47, i32 0, i32 1
  %49 = load double, ptr %48, align 8, !tbaa !52
  %50 = fadd double %45, %49
  %51 = load ptr, ptr %5, align 8, !tbaa !3
  %52 = getelementptr inbounds nuw %struct.GVJ_s, ptr %51, i32 0, i32 4
  %53 = load ptr, ptr %52, align 8, !tbaa !8
  %54 = getelementptr inbounds nuw %struct.obj_state_s, ptr %53, i32 0, i32 11
  %55 = load double, ptr %54, align 8, !tbaa !56
  %56 = call i32 (ptr, ptr, ...) @agxbprint(ptr noundef %10, ptr noundef @.str.51, double noundef %40, double noundef %50, double noundef 0.000000e+00, double noundef %55)
  %57 = load i64, ptr %11, align 8, !tbaa !61
  %58 = icmp eq i64 %57, 0
  br i1 %58, label %64, label %59

59:                                               ; preds = %30
  %60 = load i64, ptr %11, align 8, !tbaa !61
  %61 = add i64 %60, 1
  %62 = load i64, ptr %7, align 8, !tbaa !61
  %63 = icmp eq i64 %61, %62
  br i1 %63, label %64, label %91

64:                                               ; preds = %59, %30
  %65 = load ptr, ptr %6, align 8, !tbaa !54
  %66 = load i64, ptr %11, align 8, !tbaa !61
  %67 = getelementptr inbounds nuw %struct.pointf_s, ptr %65, i64 %66
  %68 = getelementptr inbounds nuw %struct.pointf_s, ptr %67, i32 0, i32 0
  %69 = load double, ptr %68, align 8, !tbaa !48
  %70 = load ptr, ptr %5, align 8, !tbaa !3
  %71 = getelementptr inbounds nuw %struct.GVJ_s, ptr %70, i32 0, i32 52
  %72 = getelementptr inbounds nuw %struct.pointf_s, ptr %71, i32 0, i32 0
  %73 = load double, ptr %72, align 8, !tbaa !50
  %74 = fadd double %69, %73
  %75 = load ptr, ptr %6, align 8, !tbaa !54
  %76 = load i64, ptr %11, align 8, !tbaa !61
  %77 = getelementptr inbounds nuw %struct.pointf_s, ptr %75, i64 %76
  %78 = getelementptr inbounds nuw %struct.pointf_s, ptr %77, i32 0, i32 1
  %79 = load double, ptr %78, align 8, !tbaa !51
  %80 = load ptr, ptr %5, align 8, !tbaa !3
  %81 = getelementptr inbounds nuw %struct.GVJ_s, ptr %80, i32 0, i32 52
  %82 = getelementptr inbounds nuw %struct.pointf_s, ptr %81, i32 0, i32 1
  %83 = load double, ptr %82, align 8, !tbaa !52
  %84 = fadd double %79, %83
  %85 = load ptr, ptr %5, align 8, !tbaa !3
  %86 = getelementptr inbounds nuw %struct.GVJ_s, ptr %85, i32 0, i32 4
  %87 = load ptr, ptr %86, align 8, !tbaa !8
  %88 = getelementptr inbounds nuw %struct.obj_state_s, ptr %87, i32 0, i32 11
  %89 = load double, ptr %88, align 8, !tbaa !56
  %90 = call i32 (ptr, ptr, ...) @agxbprint(ptr noundef %10, ptr noundef @.str.51, double noundef %74, double noundef %84, double noundef 0.000000e+00, double noundef %89)
  br label %91

91:                                               ; preds = %64, %59
  br label %92

92:                                               ; preds = %91
  %93 = load i64, ptr %11, align 8, !tbaa !61
  %94 = add i64 %93, 1
  store i64 %94, ptr %11, align 8, !tbaa !61
  br label %25, !llvm.loop !65

95:                                               ; preds = %29
  %96 = load ptr, ptr %5, align 8, !tbaa !3
  %97 = call ptr @agxbuse(ptr noundef %10)
  call void (ptr, ptr, ...) @gvprintf(ptr noundef %96, ptr noundef @.str.58, ptr noundef %97)
  %98 = load ptr, ptr %5, align 8, !tbaa !3
  %99 = load ptr, ptr %5, align 8, !tbaa !3
  %100 = getelementptr inbounds nuw %struct.GVJ_s, ptr %99, i32 0, i32 51
  %101 = getelementptr inbounds nuw %struct.pointf_s, ptr %100, i32 0, i32 0
  %102 = load double, ptr %101, align 8, !tbaa !33
  %103 = load ptr, ptr %5, align 8, !tbaa !3
  %104 = getelementptr inbounds nuw %struct.GVJ_s, ptr %103, i32 0, i32 51
  %105 = getelementptr inbounds nuw %struct.pointf_s, ptr %104, i32 0, i32 1
  %106 = load double, ptr %105, align 8, !tbaa !36
  call void (ptr, ptr, ...) @gvprintf(ptr noundef %98, ptr noundef @.str.46, double noundef %102, double noundef %106, double noundef 1.000000e+00)
  %107 = load ptr, ptr %5, align 8, !tbaa !3
  %108 = load ptr, ptr %5, align 8, !tbaa !3
  %109 = getelementptr inbounds nuw %struct.GVJ_s, ptr %108, i32 0, i32 42
  %110 = load i32, ptr %109, align 8, !tbaa !53
  %111 = sitofp i32 %110 to float
  %112 = fpext float %111 to double
  call void (ptr, ptr, ...) @gvprintf(ptr noundef %107, ptr noundef @.str.29, double noundef 0.000000e+00, double noundef 0.000000e+00, double noundef %112)
  %113 = load ptr, ptr %5, align 8, !tbaa !3
  %114 = load i32, ptr @z, align 4, !tbaa !37
  %115 = sub nsw i32 %114, 2
  call void (ptr, ptr, ...) @gvprintf(ptr noundef %113, ptr noundef @.str.30, double noundef 0.000000e+00, double noundef 0.000000e+00, i32 noundef %115)
  %116 = load ptr, ptr %5, align 8, !tbaa !3
  %117 = load ptr, ptr %9, align 8, !tbaa !38
  call void (ptr, ptr, ...) @gvprintf(ptr noundef %116, ptr noundef @.str.31, ptr noundef %117)
  %118 = load ptr, ptr %9, align 8, !tbaa !38
  call void @free(ptr noundef %118) #14
  call void @agxbfree(ptr noundef %10)
  call void @llvm.lifetime.end.p0(i64 32, ptr %10) #14
  call void @llvm.lifetime.end.p0(i64 8, ptr %9) #14
  ret void
}