; Function Attrs: nounwind uwtable
define internal void @pov_bezier(ptr noundef %0, ptr noundef readonly captures(none) %1, i64 noundef %2, i32 %3) #0 {
  %5 = alloca %struct.agxbuf, align 8
  %6 = tail call i32 @gvputs(ptr noundef %0, ptr noundef nonnull @.str.56) #18
  %7 = load i32, ptr @layerz, align 4, !tbaa !35
  %8 = add nsw i32 %7, -4
  store i32 %8, ptr @z, align 4, !tbaa !35
  %9 = getelementptr inbounds nuw i8, ptr %0, i64 32
  %10 = load ptr, ptr %9, align 8, !tbaa !3
  %11 = getelementptr inbounds nuw i8, ptr %10, i64 72
  %12 = tail call fastcc ptr @pov_color_as_str(ptr noundef nonnull byval(%struct.color_s) align 8 %11, float noundef 0.000000e+00)
  call void @llvm.lifetime.start.p0(i64 32, ptr nonnull %5) #18
  call void @llvm.memset.p0.i64(ptr noundef nonnull align 8 dereferenceable(32) %5, i8 0, i64 32, i1 false)
  %13 = add i64 %2, 2
  call void (ptr, ptr, ...) @agxbprint(ptr noundef %5, ptr noundef nonnull @.str.49, ptr noundef nonnull @.str.57, i64 noundef %13)
  %.not = icmp eq i64 %2, 0
  br i1 %.not, label %._crit_edge, label %.lr.ph

.lr.ph:                                           ; preds = %4
  %14 = getelementptr inbounds nuw i8, ptr %0, i64 632
  %15 = getelementptr inbounds nuw i8, ptr %0, i64 640
  br label %50

._crit_edge:                                      ; preds = %75, %4
  %16 = getelementptr inbounds nuw i8, ptr %5, i64 31
  %.val.i = load i8, ptr %16, align 1, !tbaa !30
  switch i8 %.val.i, label %agxblen.exit.i.i [
    i8 -1, label %18
    i8 31, label %agxbclear.exit.thread.i
  ]

agxblen.exit.i.i:                                 ; preds = %._crit_edge
  %17 = zext i8 %.val.i to i64
  br label %agxbsizeof.exit.i.i

18:                                               ; preds = %._crit_edge
  %19 = getelementptr inbounds nuw i8, ptr %5, i64 8
  %20 = load i64, ptr %19, align 8, !tbaa !30
  %21 = getelementptr inbounds nuw i8, ptr %5, i64 16
  %22 = load i64, ptr %21, align 8, !tbaa !30
  br label %agxbsizeof.exit.i.i

agxbsizeof.exit.i.i:                              ; preds = %18, %agxblen.exit.i.i
  %.0.i20.i.i = phi i64 [ %20, %18 ], [ %17, %agxblen.exit.i.i ]
  %.0.i14.i.i = phi i64 [ %22, %18 ], [ 31, %agxblen.exit.i.i ]
  %.not.i5.i = icmp ult i64 %.0.i20.i.i, %.0.i14.i.i
  br i1 %.not.i5.i, label %24, label %23

23:                                               ; preds = %agxbsizeof.exit.i.i
  call fastcc void @agxbmore(ptr noundef nonnull %5, i64 noundef 1)
  %.val.i15.pre.i.i = load i8, ptr %16, align 1, !tbaa !30
  br label %24

24:                                               ; preds = %23, %agxbsizeof.exit.i.i
  %.val.i6.pr.i = phi i8 [ %.val.i15.pre.i.i, %23 ], [ %.val.i, %agxbsizeof.exit.i.i ]
  %.not.i16.i.i = icmp eq i8 %.val.i6.pr.i, -1
  br i1 %.not.i16.i.i, label %agxbputc.exit.i.thread, label %agxbputc.exit.i

agxbputc.exit.i.thread:                           ; preds = %24
  %25 = getelementptr inbounds nuw i8, ptr %5, i64 8
  %26 = load i64, ptr %25, align 8, !tbaa !30
  %27 = load ptr, ptr %5, align 8, !tbaa !30
  %28 = getelementptr inbounds nuw i8, ptr %27, i64 %26
  store i8 0, ptr %28, align 1, !tbaa !30
  br label %34

agxbputc.exit.i:                                  ; preds = %24
  %29 = zext i8 %.val.i6.pr.i to i64
  %30 = getelementptr inbounds nuw [31 x i8], ptr %5, i64 0, i64 %29
  store i8 0, ptr %30, align 1, !tbaa !30
  %31 = load i8, ptr %16, align 1, !tbaa !30
  %32 = add i8 %31, 1
  store i8 %32, ptr %16, align 1, !tbaa !30
  %33 = icmp eq i8 %32, -1
  br i1 %33, label %34, label %agxbclear.exit.thread.i

agxbclear.exit.thread.i:                          ; preds = %agxbputc.exit.i, %._crit_edge
  store i8 0, ptr %16, align 1, !tbaa !30
  br label %agxbuse.exit

34:                                               ; preds = %agxbputc.exit.i.thread, %agxbputc.exit.i
  %35 = getelementptr inbounds nuw i8, ptr %5, i64 8
  store i64 0, ptr %35, align 8, !tbaa !30
  %36 = load ptr, ptr %5, align 8, !tbaa !30
  br label %agxbuse.exit

agxbuse.exit:                                     ; preds = %agxbclear.exit.thread.i, %34
  %37 = phi ptr [ %36, %34 ], [ %5, %agxbclear.exit.thread.i ]
  call void (ptr, ptr, ...) @gvprintf(ptr noundef nonnull %0, ptr noundef nonnull @.str.58, ptr noundef %37) #18
  %38 = getelementptr inbounds nuw i8, ptr %0, i64 616
  %39 = load double, ptr %38, align 8, !tbaa !32
  %40 = getelementptr inbounds nuw i8, ptr %0, i64 624
  %41 = load double, ptr %40, align 8, !tbaa !34
  call void (ptr, ptr, ...) @gvprintf(ptr noundef nonnull %0, ptr noundef nonnull @.str.46, double noundef %39, double noundef %41, double noundef 1.000000e+00) #18
  %42 = getelementptr inbounds nuw i8, ptr %0, i64 488
  %43 = load i32, ptr %42, align 8, !tbaa !47
  %44 = sitofp i32 %43 to float
  %45 = fpext float %44 to double
  call void (ptr, ptr, ...) @gvprintf(ptr noundef nonnull %0, ptr noundef nonnull @.str.29, double noundef 0.000000e+00, double noundef 0.000000e+00, double noundef %45) #18
  %46 = load i32, ptr @z, align 4, !tbaa !35
  %47 = add nsw i32 %46, -2
  call void (ptr, ptr, ...) @gvprintf(ptr noundef nonnull %0, ptr noundef nonnull @.str.30, double noundef 0.000000e+00, double noundef 0.000000e+00, i32 noundef %47) #18
  call void (ptr, ptr, ...) @gvprintf(ptr noundef nonnull %0, ptr noundef nonnull @.str.31, ptr noundef %12) #18
  call void @free(ptr noundef %12) #18
  %.val35 = load i8, ptr %16, align 1, !tbaa !30
  %48 = icmp eq i8 %.val35, -1
  br i1 %48, label %49, label %agxbfree.exit

49:                                               ; preds = %agxbuse.exit
  %.val = load ptr, ptr %5, align 8
  call void @free(ptr noundef %.val) #18
  br label %agxbfree.exit

agxbfree.exit:                                    ; preds = %agxbuse.exit, %49
  call void @llvm.lifetime.end.p0(i64 32, ptr nonnull %5) #18
  ret void

50:                                               ; preds = %.lr.ph, %75
  %.036 = phi i64 [ 0, %.lr.ph ], [ %63, %75 ]
  %51 = getelementptr inbounds nuw %struct.pointf_s, ptr %1, i64 %.036
  %52 = load double, ptr %51, align 8, !tbaa !48
  %53 = load double, ptr %14, align 8, !tbaa !45
  %54 = fadd double %52, %53
  %55 = getelementptr inbounds nuw i8, ptr %51, i64 8
  %56 = load double, ptr %55, align 8, !tbaa !49
  %57 = load double, ptr %15, align 8, !tbaa !46
  %58 = fadd double %56, %57
  %59 = load ptr, ptr %9, align 8, !tbaa !3
  %60 = getelementptr inbounds nuw i8, ptr %59, i64 176
  %61 = load double, ptr %60, align 8, !tbaa !50
  call void (ptr, ptr, ...) @agxbprint(ptr noundef %5, ptr noundef nonnull @.str.51, double noundef %54, double noundef %58, double noundef 0.000000e+00, double noundef %61)
  %62 = icmp eq i64 %.036, 0
  %63 = add nuw i64 %.036, 1
  %64 = icmp eq i64 %63, %2
  %or.cond = or i1 %62, %64
  br i1 %or.cond, label %65, label %75

65:                                               ; preds = %50
  %66 = load double, ptr %51, align 8, !tbaa !48
  %67 = load double, ptr %14, align 8, !tbaa !45
  %68 = fadd double %66, %67
  %69 = load double, ptr %55, align 8, !tbaa !49
  %70 = load double, ptr %15, align 8, !tbaa !46
  %71 = fadd double %69, %70
  %72 = load ptr, ptr %9, align 8, !tbaa !3
  %73 = getelementptr inbounds nuw i8, ptr %72, i64 176
  %74 = load double, ptr %73, align 8, !tbaa !50
  call void (ptr, ptr, ...) @agxbprint(ptr noundef %5, ptr noundef nonnull @.str.51, double noundef %68, double noundef %71, double noundef 0.000000e+00, double noundef %74)
  br label %75

75:                                               ; preds = %50, %65
  %exitcond.not = icmp eq i64 %63, %2
  br i1 %exitcond.not, label %._crit_edge, label %50, !llvm.loop !59
}